target datalayout = "e-m:e-p270:32:32-p271:32:32-p272:64:64-i64:64-i128:128-f80:128-n8:16:32:64-S128"
target triple = "x86_64-pc-linux-gnu"

%struct.cli_htu32 = type { ptr, i64, i64, i64 }
%struct.cli_htu32_element = type { i32, %union.anon }
%union.anon = type { i64 }

@.str = private unnamed_addr constant [80 x i8] c"hashtab.c:Growing hashtable %p, because it has exceeded maxfill, old size: %zu\0A\00", align 1
@.str.2 = private unnamed_addr constant [68 x i8] c"hashtab.c: Growing hashtable %p, because it's full, old size: %zu.\0A\00", align 1
@.str.3 = private unnamed_addr constant [37 x i8] c"hashtab.c: Unable to grow hashtable\0A\00", align 1

; Function Attrs: nounwind uwtable
define internal i32 @hash32shift(i32 noundef %0) #0 {
  %2 = alloca i32, align 4
  store i32 %0, ptr %2, align 4
  %3 = load i32, ptr %2, align 4
  %4 = xor i32 %3, -1
  %5 = load i32, ptr %2, align 4
  %6 = shl i32 %5, 15
  %7 = add i32 %4, %6
  store i32 %7, ptr %2, align 4
  %8 = load i32, ptr %2, align 4
  %9 = load i32, ptr %2, align 4
  %10 = lshr i32 %9, 12
  %11 = xor i32 %8, %10
  store i32 %11, ptr %2, align 4
  %12 = load i32, ptr %2, align 4
  %13 = load i32, ptr %2, align 4
  %14 = shl i32 %13, 2
  %15 = add i32 %12, %14
  store i32 %15, ptr %2, align 4
  %16 = load i32, ptr %2, align 4
  %17 = load i32, ptr %2, align 4
  %18 = lshr i32 %17, 4
  %19 = xor i32 %16, %18
  store i32 %19, ptr %2, align 4
  %20 = load i32, ptr %2, align 4
  %21 = load i32, ptr %2, align 4
  %22 = shl i32 %21, 3
  %23 = add i32 %20, %22
  %24 = load i32, ptr %2, align 4
  %25 = shl i32 %24, 11
  %26 = add i32 %23, %25
  store i32 %26, ptr %2, align 4
  %27 = load i32, ptr %2, align 4
  %28 = load i32, ptr %2, align 4
  %29 = lshr i32 %28, 16
  %30 = xor i32 %27, %29
  store i32 %30, ptr %2, align 4
  %31 = load i32, ptr %2, align 4
  ret i32 %31
}

; Function Attrs: nounwind uwtable
define internal i64 @hash_htu32(i32 noundef %0, i64 noundef %1) #0 {
  %3 = alloca i32, align 4
  %4 = alloca i64, align 8
  %5 = alloca i64, align 8
  store i32 %0, ptr %3, align 4
  store i64 %1, ptr %4, align 8
  %6 = load i32, ptr %3, align 4
  %7 = call i32 @hash32shift(i32 noundef %6)
  %8 = zext i32 %7 to i64
  store i64 %8, ptr %5, align 8
  %9 = load i64, ptr %5, align 8
  %10 = load i64, ptr %4, align 8
  %11 = sub i64 %10, 1
  %12 = and i64 %9, %11
  ret i64 %12
}

; Function Attrs: nounwind uwtable
define i32 @cli_htu32_insert(ptr noundef %0, ptr noundef %1, ptr noundef %2) #0 {
  %4 = alloca i32, align 4
  %5 = alloca ptr, align 8
  %6 = alloca ptr, align 8
  %7 = alloca ptr, align 8
  %8 = alloca i32, align 4
  %9 = alloca ptr, align 8
  %10 = alloca ptr, align 8
  %11 = alloca i64, align 8
  %12 = alloca i64, align 8
  store ptr %0, ptr %5, align 8
  store ptr %1, ptr %6, align 8
  store ptr %2, ptr %7, align 8
  store ptr null, ptr %10, align 8
  store i64 1, ptr %11, align 8
  %13 = load ptr, ptr %5, align 8
  %14 = icmp ne ptr %13, null
  br i1 %14, label %16, label %15

15:                                               ; preds = %3
  store i32 2, ptr %4, align 4
  br label %121

16:                                               ; preds = %3
  %17 = load ptr, ptr %5, align 8
  %18 = getelementptr inbounds %struct.cli_htu32, ptr %17, i32 0, i32 2
  %19 = load i64, ptr %18, align 8
  %20 = load ptr, ptr %5, align 8
  %21 = getelementptr inbounds %struct.cli_htu32, ptr %20, i32 0, i32 3
  %22 = load i64, ptr %21, align 8
  %23 = icmp ugt i64 %19, %22
  br i1 %23, label %24, label %32

24:                                               ; preds = %16
  %25 = load ptr, ptr %5, align 8
  %26 = load ptr, ptr %5, align 8
  %27 = getelementptr inbounds %struct.cli_htu32, ptr %26, i32 0, i32 1
  %28 = load i64, ptr %27, align 8
  call void (ptr, ...) @cli_dbgmsg(ptr noundef @.str, ptr noundef %25, i64 noundef %28)
  %29 = load ptr, ptr %5, align 8
  %30 = load ptr, ptr %7, align 8
  %31 = call i32 @cli_htu32_grow(ptr noundef %29, ptr noundef %30)
  br label %32

32:                                               ; preds = %24, %16
  br label %33

33:                                               ; preds = %114, %32
  %34 = load ptr, ptr %6, align 8
  %35 = getelementptr inbounds %struct.cli_htu32_element, ptr %34, i32 0, i32 0
  %36 = load i32, ptr %35, align 8
  %37 = load ptr, ptr %5, align 8
  %38 = getelementptr inbounds %struct.cli_htu32, ptr %37, i32 0, i32 1
  %39 = load i64, ptr %38, align 8
  %40 = call i64 @hash_htu32(i32 noundef %36, i64 noundef %39)
  store i64 %40, ptr %12, align 8
  %41 = load ptr, ptr %5, align 8
  %42 = getelementptr inbounds %struct.cli_htu32, ptr %41, i32 0, i32 0
  %43 = load ptr, ptr %42, align 8
  %44 = load i64, ptr %12, align 8
  %45 = getelementptr inbounds %struct.cli_htu32_element, ptr %43, i64 %44
  store ptr %45, ptr %9, align 8
  br label %46

46:                                               ; preds = %103, %33
  %47 = load ptr, ptr %9, align 8
  %48 = getelementptr inbounds %struct.cli_htu32_element, ptr %47, i32 0, i32 0
  %49 = load i32, ptr %48, align 8
  %50 = icmp ne i32 %49, 0
  br i1 %50, label %64, label %51

51:                                               ; preds = %46
  %52 = load ptr, ptr %10, align 8
  %53 = icmp ne ptr %52, null
  br i1 %53, label %54, label %56

54:                                               ; preds = %51
  %55 = load ptr, ptr %10, align 8
  store ptr %55, ptr %9, align 8
  br label %57

56:                                               ; preds = %51
  br label %57

57:                                               ; preds = %56, %54
  %58 = load ptr, ptr %9, align 8
  %59 = load ptr, ptr %6, align 8
  call void @llvm.memcpy.p0.p0.i64(ptr align 8 %58, ptr align 8 %59, i64 16, i1 false)
  %60 = load ptr, ptr %5, align 8
  %61 = getelementptr inbounds %struct.cli_htu32, ptr %60, i32 0, i32 2
  %62 = load i64, ptr %61, align 8
  %63 = add i64 %62, 1
  store i64 %63, ptr %61, align 8
  store i32 0, ptr %4, align 4
  br label %121

64:                                               ; preds = %46
  %65 = load ptr, ptr %9, align 8
  %66 = getelementptr inbounds %struct.cli_htu32_element, ptr %65, i32 0, i32 0
  %67 = load i32, ptr %66, align 8
  %68 = icmp eq i32 %67, -1
  br i1 %68, label %69, label %73

69:                                               ; preds = %64
  %70 = load ptr, ptr %9, align 8
  store ptr %70, ptr %10, align 8
  %71 = load ptr, ptr %9, align 8
  %72 = getelementptr inbounds %struct.cli_htu32_element, ptr %71, i32 0, i32 0
  store i32 0, ptr %72, align 8
  br label %101

73:                                               ; preds = %64
  %74 = load ptr, ptr %6, align 8
  %75 = getelementptr inbounds %struct.cli_htu32_element, ptr %74, i32 0, i32 0
  %76 = load i32, ptr %75, align 8
  %77 = load ptr, ptr %9, align 8
  %78 = getelementptr inbounds %struct.cli_htu32_element, ptr %77, i32 0, i32 0
  %79 = load i32, ptr %78, align 8
  %80 = icmp eq i32 %76, %79
  br i1 %80, label %81, label %86

81:                                               ; preds = %73
  %82 = load ptr, ptr %9, align 8
  %83 = getelementptr inbounds %struct.cli_htu32_element, ptr %82, i32 0, i32 1
  %84 = load ptr, ptr %6, align 8
  %85 = getelementptr inbounds %struct.cli_htu32_element, ptr %84, i32 0, i32 1
  call void @llvm.memcpy.p0.p0.i64(ptr align 8 %83, ptr align 8 %85, i64 8, i1 false)
  store i32 0, ptr %4, align 4
  br label %121

86:                                               ; preds = %73
  %87 = load i64, ptr %12, align 8
  %88 = load i64, ptr %11, align 8
  %89 = add i64 %88, 1
  store i64 %89, ptr %11, align 8
  %90 = add i64 %87, %88
  %91 = load ptr, ptr %5, align 8
  %92 = getelementptr inbounds %struct.cli_htu32, ptr %91, i32 0, i32 1
  %93 = load i64, ptr %92, align 8
  %94 = urem i64 %90, %93
  store i64 %94, ptr %12, align 8
  %95 = load ptr, ptr %5, align 8
  %96 = getelementptr inbounds %struct.cli_htu32, ptr %95, i32 0, i32 0
  %97 = load ptr, ptr %96, align 8
  %98 = load i64, ptr %12, align 8
  %99 = getelementptr inbounds %struct.cli_htu32_element, ptr %97, i64 %98
  store ptr %99, ptr %9, align 8
  br label %100

100:                                              ; preds = %86
  br label %101

101:                                              ; preds = %100, %69
  br label %102

102:                                              ; preds = %101
  br label %103

103:                                              ; preds = %102
  %104 = load i64, ptr %11, align 8
  %105 = load ptr, ptr %5, align 8
  %106 = getelementptr inbounds %struct.cli_htu32, ptr %105, i32 0, i32 1
  %107 = load i64, ptr %106, align 8
  %108 = icmp ule i64 %104, %107
  br i1 %108, label %46, label %109

109:                                              ; preds = %103
  %110 = load ptr, ptr %5, align 8
  %111 = load ptr, ptr %5, align 8
  %112 = getelementptr inbounds %struct.cli_htu32, ptr %111, i32 0, i32 1
  %113 = load i64, ptr %112, align 8
  call void (ptr, ...) @cli_dbgmsg(ptr noundef @.str.2, ptr noundef %110, i64 noundef %113)
  br label %114

114:                                              ; preds = %109
  %115 = load ptr, ptr %5, align 8
  %116 = load ptr, ptr %7, align 8
  %117 = call i32 @cli_htu32_grow(ptr noundef %115, ptr noundef %116)
  store i32 %117, ptr %8, align 4
  %118 = icmp uge i32 %117, 0
  br i1 %118, label %33, label %119

119:                                              ; preds = %114
  call void (ptr, ...) @cli_warnmsg(ptr noundef @.str.3)
  %120 = load i32, ptr %8, align 4
  store i32 %120, ptr %4, align 4
  br label %121

121:                                              ; preds = %119, %81, %57, %15
  %122 = load i32, ptr %4, align 4
  ret i32 %122
}