; Function Attrs: nounwind uwtable
define noundef i32 @cli_htu32_insert(ptr noundef %0, ptr nocapture noundef readonly %1, ptr noundef %2) local_unnamed_addr #0 {
  %.not = icmp eq ptr %0, null
  br i1 %.not, label %57, label %4

4:                                                ; preds = %3
  %5 = getelementptr inbounds i8, ptr %0, i64 16
  %6 = load i64, ptr %5, align 8
  %7 = getelementptr inbounds i8, ptr %0, i64 24
  %8 = load i64, ptr %7, align 8
  %9 = icmp ugt i64 %6, %8
  br i1 %9, label %10, label %13

10:                                               ; preds = %4
  %11 = getelementptr inbounds i8, ptr %0, i64 8
  %12 = load i64, ptr %11, align 8
  tail call void (ptr, ...) @cli_dbgmsg(ptr noundef nonnull @.str, ptr noundef nonnull %0, i64 noundef %12) #18
  tail call fastcc void @cli_htu32_grow(ptr noundef nonnull %0, ptr noundef %2)
  br label %13

13:                                               ; preds = %10, %4
  %14 = getelementptr inbounds i8, ptr %0, i64 8
  br label %15

15:                                               ; preds = %56, %13
  %.038 = phi ptr [ null, %13 ], [ %.240, %56 ]
  %.036 = phi i64 [ 1, %13 ], [ %.2, %56 ]
  %16 = load i32, ptr %1, align 8
  %17 = load i64, ptr %14, align 8
  %18 = xor i32 %16, -1
  %19 = shl i32 %16, 15
  %20 = add i32 %19, %18
  %21 = lshr i32 %20, 12
  %22 = xor i32 %21, %20
  %23 = mul i32 %22, 5
  %24 = lshr i32 %23, 4
  %25 = xor i32 %24, %23
  %26 = mul i32 %25, 2057
  %27 = lshr i32 %26, 16
  %28 = xor i32 %27, %26
  %29 = zext i32 %28 to i64
  %30 = add i64 %17, 4294967295
  %31 = and i64 %30, %29
  %32 = load ptr, ptr %0, align 8
  %33 = getelementptr inbounds %struct.cli_htu32_element, ptr %32, i64 %31
  br label %34

34:                                               ; preds = %54, %15
  %35 = phi i64 [ %17, %15 ], [ %55, %54 ]
  %.041 = phi ptr [ %33, %15 ], [ %.243, %54 ]
  %.139 = phi ptr [ %.038, %15 ], [ %.240, %54 ]
  %.137 = phi i64 [ %.036, %15 ], [ %.2, %54 ]
  %.0 = phi i64 [ %31, %15 ], [ %.1, %54 ]
  %36 = load i32, ptr %.041, align 8
  switch i32 %36, label %41 [
    i32 0, label %37
    i32 -1, label %40
  ]

37:                                               ; preds = %34
  %.not49 = icmp eq ptr %.139, null
  %spec.select = select i1 %.not49, ptr %.041, ptr %.139
  tail call void @llvm.memcpy.p0.p0.i64(ptr noundef nonnull align 8 dereferenceable(16) %spec.select, ptr noundef nonnull align 8 dereferenceable(16) %1, i64 16, i1 false)
  %38 = load i64, ptr %5, align 8
  %39 = add i64 %38, 1
  store i64 %39, ptr %5, align 8
  br label %57

40:                                               ; preds = %34
  store i32 0, ptr %.041, align 8
  %.pre = load i64, ptr %14, align 8
  br label %54

41:                                               ; preds = %34
  %42 = load i32, ptr %1, align 8
  %43 = icmp eq i32 %42, %36
  br i1 %43, label %44, label %48

44:                                               ; preds = %41
  %45 = getelementptr inbounds i8, ptr %.041, i64 8
  %46 = getelementptr inbounds i8, ptr %1, i64 8
  %47 = load i64, ptr %46, align 8
  store i64 %47, ptr %45, align 8
  br label %57

48:                                               ; preds = %41
  %49 = add i64 %.137, 1
  %50 = add i64 %.0, %.137
  %51 = urem i64 %50, %35
  %52 = load ptr, ptr %0, align 8
  %53 = getelementptr inbounds %struct.cli_htu32_element, ptr %52, i64 %51
  br label %54

54:                                               ; preds = %48, %40
  %55 = phi i64 [ %.pre, %40 ], [ %35, %48 ]
  %.243 = phi ptr [ %.041, %40 ], [ %53, %48 ]
  %.240 = phi ptr [ %.041, %40 ], [ %.139, %48 ]
  %.2 = phi i64 [ %.137, %40 ], [ %49, %48 ]
  %.1 = phi i64 [ %.0, %40 ], [ %51, %48 ]
  %.not50 = icmp ugt i64 %.2, %55
  br i1 %.not50, label %56, label %34

56:                                               ; preds = %54
  tail call void (ptr, ...) @cli_dbgmsg(ptr noundef nonnull @.str.2, ptr noundef nonnull %0, i64 noundef %55) #18
  tail call fastcc void @cli_htu32_grow(ptr noundef nonnull %0, ptr noundef %2)
  br label %15

57:                                               ; preds = %3, %44, %37
  %.044 = phi i32 [ 0, %44 ], [ 0, %37 ], [ 2, %3 ]
  ret i32 %.044
}